; ModuleID = '23/182.c'
source_filename = "23/182.c"
target datalayout = "e-m:e-p270:32:32-p271:32:32-p272:64:64-i64:64-f80:128-n8:16:32:64-S128"
target triple = "x86_64-pc-linux-gnu"

@.str = private unnamed_addr constant [3 x i8] c"%c\00", align 1
@.str.1 = private unnamed_addr constant [2 x i8] c" \00", align 1

; Function Attrs: noinline nounwind uwtable
define dso_local void @main() #0 {
  %1 = alloca i32, align 4
  %2 = alloca i32, align 4
  %3 = alloca i32, align 4
  %4 = alloca [100 x i8], align 16
  store i32 0, i32* %3, align 4
  %5 = getelementptr inbounds [100 x i8], [100 x i8]* %4, i64 0, i64 0
  %6 = call i32 (i8*, ...) bitcast (i32 (...)* @gets to i32 (i8*, ...)*)(i8* %5)
  %7 = getelementptr inbounds [100 x i8], [100 x i8]* %4, i64 0, i64 0
  %8 = call i64 @strlen(i8* %7) #3
  %9 = sub i64 %8, 1
  %10 = trunc i64 %9 to i32
  store i32 %10, i32* %1, align 4
  br label %11

11:                                               ; preds = %73, %0
  %12 = load i32, i32* %1, align 4
  %13 = icmp sge i32 %12, 0
  br i1 %13, label %14, label %76

14:                                               ; preds = %11
  %15 = load i32, i32* %1, align 4
  %16 = sext i32 %15 to i64
  %17 = getelementptr inbounds [100 x i8], [100 x i8]* %4, i64 0, i64 %16
  %18 = load i8, i8* %17, align 1
  %19 = sext i8 %18 to i32
  %20 = icmp ne i32 %19, 32
  br i1 %20, label %21, label %24

21:                                               ; preds = %14
  %22 = load i32, i32* %3, align 4
  %23 = add nsw i32 %22, 1
  store i32 %23, i32* %3, align 4
  br label %24

24:                                               ; preds = %21, %14
  %25 = load i32, i32* %1, align 4
  %26 = sext i32 %25 to i64
  %27 = getelementptr inbounds [100 x i8], [100 x i8]* %4, i64 0, i64 %26
  %28 = load i8, i8* %27, align 1
  %29 = sext i8 %28 to i32
  %30 = icmp eq i32 %29, 32
  br i1 %30, label %31, label %52

31:                                               ; preds = %24
  %32 = load i32, i32* %1, align 4
  %33 = add nsw i32 %32, 1
  store i32 %33, i32* %2, align 4
  br label %34

34:                                               ; preds = %47, %31
  %35 = load i32, i32* %2, align 4
  %36 = load i32, i32* %1, align 4
  %37 = load i32, i32* %3, align 4
  %38 = add nsw i32 %36, %37
  %39 = icmp sle i32 %35, %38
  br i1 %39, label %40, label %50

40:                                               ; preds = %34
  %41 = load i32, i32* %2, align 4
  %42 = sext i32 %41 to i64
  %43 = getelementptr inbounds [100 x i8], [100 x i8]* %4, i64 0, i64 %42
  %44 = load i8, i8* %43, align 1
  %45 = sext i8 %44 to i32
  %46 = call i32 (i8*, ...) @printf(i8* getelementptr inbounds ([3 x i8], [3 x i8]* @.str, i64 0, i64 0), i32 %45)
  br label %47

47:                                               ; preds = %40
  %48 = load i32, i32* %2, align 4
  %49 = add nsw i32 %48, 1
  store i32 %49, i32* %2, align 4
  br label %34

50:                                               ; preds = %34
  %51 = call i32 (i8*, ...) @printf(i8* getelementptr inbounds ([2 x i8], [2 x i8]* @.str.1, i64 0, i64 0))
  store i32 0, i32* %3, align 4
  br label %52

52:                                               ; preds = %50, %24
  %53 = load i32, i32* %1, align 4
  %54 = icmp eq i32 %53, 0
  br i1 %54, label %55, label %72

55:                                               ; preds = %52
  %56 = load i32, i32* %1, align 4
  store i32 %56, i32* %2, align 4
  br label %57

57:                                               ; preds = %68, %55
  %58 = load i32, i32* %2, align 4
  %59 = load i32, i32* %3, align 4
  %60 = icmp slt i32 %58, %59
  br i1 %60, label %61, label %71

61:                                               ; preds = %57
  %62 = load i32, i32* %2, align 4
  %63 = sext i32 %62 to i64
  %64 = getelementptr inbounds [100 x i8], [100 x i8]* %4, i64 0, i64 %63
  %65 = load i8, i8* %64, align 1
  %66 = sext i8 %65 to i32
  %67 = call i32 (i8*, ...) @printf(i8* getelementptr inbounds ([3 x i8], [3 x i8]* @.str, i64 0, i64 0), i32 %66)
  br label %68

68:                                               ; preds = %61
  %69 = load i32, i32* %2, align 4
  %70 = add nsw i32 %69, 1
  store i32 %70, i32* %2, align 4
  br label %57

71:                                               ; preds = %57
  br label %72

72:                                               ; preds = %71, %52
  br label %73

73:                                               ; preds = %72
  %74 = load i32, i32* %1, align 4
  %75 = add nsw i32 %74, -1
  store i32 %75, i32* %1, align 4
  br label %11

76:                                               ; preds = %11
  ret void
}

declare dso_local i32 @gets(...) #1

; Function Attrs: nounwind readonly
declare dso_local i64 @strlen(i8*) #2

declare dso_local i32 @printf(i8*, ...) #1


!llvm.module.flags = !{!0}
!llvm.ident = !{!1}

!0 = !{i32 1, !"wchar_size", i32 4}
!1 = !{!"clang version 10.0.0-4ubuntu1 "}
